target datalayout = "e-m:e-p270:32:32-p271:32:32-p272:64:64-i64:64-i128:128-f80:128-n8:16:32:64-S128"
target triple = "x86_64-pc-linux-gnu"

; Function Attrs: nounwind uwtable
define internal i32 @cff_random(i32 noundef %0) #0 {
  %2 = alloca i32, align 4
  store i32 %0, ptr %2, align 4
  %3 = load i32, ptr %2, align 4
  %4 = shl i32 %3, 13
  %5 = load i32, ptr %2, align 4
  %6 = xor i32 %5, %4
  store i32 %6, ptr %2, align 4
  %7 = load i32, ptr %2, align 4
  %8 = lshr i32 %7, 17
  %9 = load i32, ptr %2, align 4
  %10 = xor i32 %9, %8
  store i32 %10, ptr %2, align 4
  %11 = load i32, ptr %2, align 4
  %12 = shl i32 %11, 5
  %13 = load i32, ptr %2, align 4
  %14 = xor i32 %13, %12
  store i32 %14, ptr %2, align 4
  %15 = load i32, ptr %2, align 4
  ret i32 %15
}