; Function Attrs: mustprogress nofree norecurse nosync nounwind willreturn memory(none) uwtable
define internal i32 @cff_random(i32 noundef %0) #2 {
  %2 = shl i32 %0, 13
  %3 = xor i32 %2, %0
  %4 = lshr i32 %3, 17
  %5 = xor i32 %4, %3
  %6 = shl i32 %5, 5
  %7 = xor i32 %6, %5
  ret i32 %7
}